target datalayout = "e-m:e-p270:32:32-p271:32:32-p272:64:64-i64:64-i128:128-f80:128-n8:16:32:64-S128"
target triple = "x86_64-pc-linux-gnu"

%"class.std::__cxx11::basic_string" = type { %"struct.std::__cxx11::basic_string<char>::_Alloc_hider", i64, %union.anon }
%"struct.std::__cxx11::basic_string<char>::_Alloc_hider" = type { ptr }
%union.anon = type { i64, [8 x i8] }
%"class.duckdb::ScalarFunction" = type { %"class.duckdb::BaseScalarFunction.base", %"class.std::function", ptr, ptr, ptr, ptr, ptr, ptr, ptr, ptr, ptr, %"class.duckdb::shared_ptr.9" }
%"class.duckdb::BaseScalarFunction.base" = type <{ %"class.duckdb::SimpleFunction", %"struct.duckdb::LogicalType", i8, i8, i8, i8 }>
%"class.duckdb::SimpleFunction" = type { %"class.duckdb::Function", %"class.duckdb::vector.3", %"class.duckdb::vector.3", %"struct.duckdb::LogicalType" }
%"class.duckdb::Function" = type { ptr, %"class.std::__cxx11::basic_string", %"class.std::__cxx11::basic_string" }
%"class.duckdb::vector.3" = type { %"class.std::vector.4" }
%"class.std::vector.4" = type { %"struct.std::_Vector_base.5" }
%"struct.std::_Vector_base.5" = type { %"struct.std::_Vector_base<duckdb::LogicalType, std::allocator<duckdb::LogicalType>>::_Vector_impl" }
%"struct.std::_Vector_base<duckdb::LogicalType, std::allocator<duckdb::LogicalType>>::_Vector_impl" = type { %"struct.std::_Vector_base<duckdb::LogicalType, std::allocator<duckdb::LogicalType>>::_Vector_impl_data" }
%"struct.std::_Vector_base<duckdb::LogicalType, std::allocator<duckdb::LogicalType>>::_Vector_impl_data" = type { ptr, ptr, ptr }
%"struct.duckdb::LogicalType" = type { i8, i8, %"class.duckdb::shared_ptr" }
%"class.duckdb::shared_ptr" = type { %"class.std::shared_ptr" }
%"class.std::shared_ptr" = type { %"class.std::__shared_ptr" }
%"class.std::__shared_ptr" = type { ptr, %"class.std::__shared_count" }
%"class.std::__shared_count" = type { ptr }
%"class.std::function" = type { %"class.std::_Function_base", ptr }
%"class.std::_Function_base" = type { %"union.std::_Any_data", ptr }
%"union.std::_Any_data" = type { %"union.std::_Nocopy_types" }
%"union.std::_Nocopy_types" = type { { i64, i64 } }
%"class.duckdb::shared_ptr.9" = type { %"class.std::shared_ptr.10" }
%"class.std::shared_ptr.10" = type { %"class.std::__shared_ptr.11" }
%"class.std::__shared_ptr.11" = type { ptr, %"class.std::__shared_count" }

; Function Attrs: mustprogress nounwind uwtable
define linkonce_odr void @_ZNSt15__new_allocatorIN6duckdb11LogicalTypeEEC2Ev(ptr noundef nonnull align 1 dereferenceable(1) %0) unnamed_addr #4 comdat align 2 {
  %2 = alloca ptr, align 8
  store ptr %0, ptr %2, align 8, !tbaa !41
  ret void
}

; Function Attrs: mustprogress nounwind uwtable
define linkonce_odr void @_ZNSt12_Vector_baseIN6duckdb11LogicalTypeESaIS1_EE17_Vector_impl_dataC2Ev(ptr noundef nonnull align 8 dereferenceable(24) %0) unnamed_addr #4 comdat align 2 {
  %2 = alloca ptr, align 8
  store ptr %0, ptr %2, align 8, !tbaa !200
  %3 = load ptr, ptr %2, align 8
  %4 = getelementptr inbounds nuw %"struct.std::_Vector_base<duckdb::LogicalType, std::allocator<duckdb::LogicalType>>::_Vector_impl_data", ptr %3, i32 0, i32 0
  store ptr null, ptr %4, align 8, !tbaa !38
  %5 = getelementptr inbounds nuw %"struct.std::_Vector_base<duckdb::LogicalType, std::allocator<duckdb::LogicalType>>::_Vector_impl_data", ptr %3, i32 0, i32 1
  store ptr null, ptr %5, align 8, !tbaa !40
  %6 = getelementptr inbounds nuw %"struct.std::_Vector_base<duckdb::LogicalType, std::allocator<duckdb::LogicalType>>::_Vector_impl_data", ptr %3, i32 0, i32 2
  store ptr null, ptr %6, align 8, !tbaa !195
  ret void
}

; Function Attrs: mustprogress nounwind uwtable
define linkonce_odr void @_ZNSaIN6duckdb11LogicalTypeEEC2Ev(ptr noundef nonnull align 1 dereferenceable(1) %0) unnamed_addr #4 comdat align 2 {
  %2 = alloca ptr, align 8
  store ptr %0, ptr %2, align 8, !tbaa !15
  %3 = load ptr, ptr %2, align 8
  call void @_ZNSt15__new_allocatorIN6duckdb11LogicalTypeEEC2Ev(ptr noundef nonnull align 1 dereferenceable(1) %3) #20
  ret void
}

; Function Attrs: mustprogress nounwind uwtable
define linkonce_odr noundef ptr @_ZNSt9_Any_data9_M_accessEv(ptr noundef nonnull align 8 dereferenceable(16) %0) #4 comdat align 2 {
  %2 = alloca ptr, align 8
  store ptr %0, ptr %2, align 8, !tbaa !310
  %3 = load ptr, ptr %2, align 8
  %4 = getelementptr inbounds [16 x i8], ptr %3, i64 0, i64 0
  ret ptr %4
}

; Function Attrs: mustprogress nounwind uwtable
define linkonce_odr void @_ZNSt12_Vector_baseIN6duckdb11LogicalTypeESaIS1_EE12_Vector_implC2Ev(ptr noundef nonnull align 8 dereferenceable(24) %0) unnamed_addr #4 comdat align 2 {
  %2 = alloca ptr, align 8
  store ptr %0, ptr %2, align 8, !tbaa !198
  %3 = load ptr, ptr %2, align 8
  call void @_ZNSaIN6duckdb11LogicalTypeEEC2Ev(ptr noundef nonnull align 1 dereferenceable(1) %3) #20
  call void @_ZNSt12_Vector_baseIN6duckdb11LogicalTypeESaIS1_EE17_Vector_impl_dataC2Ev(ptr noundef nonnull align 8 dereferenceable(24) %3) #20
  ret void
}

; Function Attrs: mustprogress nounwind uwtable
define linkonce_odr void @_ZNSt14_Function_base13_Base_managerIPFvRN6duckdb9DataChunkERNS1_15ExpressionStateERNS1_6VectorEEE9_M_createIRS8_EEvRSt9_Any_dataOT_St17integral_constantIbLb1EE(ptr noundef nonnull align 8 dereferenceable(16) %0, ptr noundef nonnull %1) #4 comdat align 2 {
  %3 = alloca ptr, align 8
  %4 = alloca ptr, align 8
  store ptr %0, ptr %3, align 8, !tbaa !310
  store ptr %1, ptr %4, align 8, !tbaa !27
  %5 = load ptr, ptr %3, align 8, !tbaa !310
  %6 = call noundef ptr @_ZNSt9_Any_data9_M_accessEv(ptr noundef nonnull align 8 dereferenceable(16) %5) #20
  %7 = load ptr, ptr %4, align 8, !tbaa !27
  store ptr %7, ptr %6, align 8, !tbaa !27
  ret void
}

; Function Attrs: mustprogress nounwind uwtable
define linkonce_odr void @_ZNSt12_Vector_baseIN6duckdb11LogicalTypeESaIS1_EEC2Ev(ptr noundef nonnull align 8 dereferenceable(24) %0) unnamed_addr #4 comdat align 2 {
  %2 = alloca ptr, align 8
  store ptr %0, ptr %2, align 8, !tbaa !193
  %3 = load ptr, ptr %2, align 8
  %4 = getelementptr inbounds nuw %"struct.std::_Vector_base.5", ptr %3, i32 0, i32 0
  call void @_ZNSt12_Vector_baseIN6duckdb11LogicalTypeESaIS1_EE12_Vector_implC2Ev(ptr noundef nonnull align 8 dereferenceable(24) %4) #20
  ret void
}

; Function Attrs: mustprogress nounwind uwtable
define linkonce_odr void @_ZNSt14_Function_base13_Base_managerIPFvRN6duckdb9DataChunkERNS1_15ExpressionStateERNS1_6VectorEEE15_M_init_functorIRS8_EEvRSt9_Any_dataOT_(ptr noundef nonnull align 8 dereferenceable(16) %0, ptr noundef nonnull %1) #4 comdat align 2 personality ptr @__gxx_personality_v0 {
  %3 = alloca ptr, align 8
  %4 = alloca ptr, align 8
  store ptr %0, ptr %3, align 8, !tbaa !310
  store ptr %1, ptr %4, align 8, !tbaa !27
  %5 = load ptr, ptr %3, align 8, !tbaa !310
  %6 = load ptr, ptr %4, align 8, !tbaa !27
  invoke void @_ZNSt14_Function_base13_Base_managerIPFvRN6duckdb9DataChunkERNS1_15ExpressionStateERNS1_6VectorEEE9_M_createIRS8_EEvRSt9_Any_dataOT_St17integral_constantIbLb1EE(ptr noundef nonnull align 8 dereferenceable(16) %5, ptr noundef nonnull %6)
          to label %7 unwind label %8

7:                                                ; preds = %2
  ret void

8:                                                ; preds = %2
  %9 = landingpad { ptr, i32 }
          catch ptr null
  %10 = extractvalue { ptr, i32 } %9, 0
  call void @__clang_call_terminate(ptr %10) #21
  unreachable
}

; Function Attrs: mustprogress nounwind uwtable
define linkonce_odr noundef zeroext i1 @_ZNSt14_Function_base13_Base_managerIPFvRN6duckdb9DataChunkERNS1_15ExpressionStateERNS1_6VectorEEE21_M_not_empty_functionIS8_EEbPT_(ptr noundef %0) #4 comdat align 2 {
  %2 = alloca ptr, align 8
  store ptr %0, ptr %2, align 8, !tbaa !27
  %3 = load ptr, ptr %2, align 8, !tbaa !27
  %4 = icmp ne ptr %3, null
  ret i1 %4
}

; Function Attrs: mustprogress nounwind uwtable
define linkonce_odr void @_ZNSt14_Function_baseC2Ev(ptr noundef nonnull align 8 dereferenceable(24) %0) unnamed_addr #4 comdat align 2 {
  %2 = alloca ptr, align 8
  store ptr %0, ptr %2, align 8, !tbaa !34
  %3 = load ptr, ptr %2, align 8
  %4 = getelementptr inbounds nuw %"class.std::_Function_base", ptr %3, i32 0, i32 0
  store ptr null, ptr %4, align 8, !tbaa !119
  %5 = getelementptr inbounds nuw %"class.std::_Function_base", ptr %3, i32 0, i32 1
  store ptr null, ptr %5, align 8, !tbaa !31
  ret void
}

; Function Attrs: mustprogress nounwind uwtable
define linkonce_odr void @_ZNSt6vectorIN6duckdb11LogicalTypeESaIS1_EEC2Ev(ptr noundef nonnull align 8 dereferenceable(24) %0) unnamed_addr #4 comdat align 2 {
  %2 = alloca ptr, align 8
  store ptr %0, ptr %2, align 8, !tbaa !36
  %3 = load ptr, ptr %2, align 8
  call void @_ZNSt12_Vector_baseIN6duckdb11LogicalTypeESaIS1_EEC2Ev(ptr noundef nonnull align 8 dereferenceable(24) %3) #20
  ret void
}

; Function Attrs: mustprogress nounwind uwtable
define linkonce_odr void @_ZNSt14_Function_baseD2Ev(ptr noundef nonnull align 8 dereferenceable(24) %0) unnamed_addr #4 comdat align 2 personality ptr @__gxx_personality_v0 {
  %2 = alloca ptr, align 8
  store ptr %0, ptr %2, align 8, !tbaa !34
  %3 = load ptr, ptr %2, align 8
  %4 = getelementptr inbounds nuw %"class.std::_Function_base", ptr %3, i32 0, i32 1
  %5 = load ptr, ptr %4, align 8, !tbaa !31
  %6 = icmp ne ptr %5, null
  br i1 %6, label %7, label %14

7:                                                ; preds = %1
  %8 = getelementptr inbounds nuw %"class.std::_Function_base", ptr %3, i32 0, i32 1
  %9 = load ptr, ptr %8, align 8, !tbaa !31
  %10 = getelementptr inbounds nuw %"class.std::_Function_base", ptr %3, i32 0, i32 0
  %11 = getelementptr inbounds nuw %"class.std::_Function_base", ptr %3, i32 0, i32 0
  %12 = invoke noundef zeroext i1 %9(ptr noundef nonnull align 8 dereferenceable(16) %10, ptr noundef nonnull align 8 dereferenceable(16) %11, i32 noundef 3)
          to label %13 unwind label %15

13:                                               ; preds = %7
  br label %14

14:                                               ; preds = %13, %1
  ret void

15:                                               ; preds = %7
  %16 = landingpad { ptr, i32 }
          catch ptr null
  %17 = extractvalue { ptr, i32 } %16, 0
  call void @__clang_call_terminate(ptr %17) #21
  unreachable
}

; Function Attrs: mustprogress nounwind uwtable
define linkonce_odr void @_ZNSt8functionIFvRN6duckdb9DataChunkERNS0_15ExpressionStateERNS0_6VectorEEEC2IRS7_vEEOT_(ptr noundef nonnull align 8 dereferenceable(32) %0, ptr noundef nonnull %1) unnamed_addr #4 comdat align 2 {
  %3 = alloca ptr, align 8
  %4 = alloca ptr, align 8
  store ptr %0, ptr %3, align 8, !tbaa !25
  store ptr %1, ptr %4, align 8, !tbaa !27
  %5 = load ptr, ptr %3, align 8
  %6 = getelementptr inbounds i8, ptr %5, i64 0
  call void @llvm.memset.p0.i64(ptr align 8 %6, i8 0, i64 24, i1 false)
  call void @_ZNSt14_Function_baseC2Ev(ptr noundef nonnull align 8 dereferenceable(24) %5) #20
  %7 = getelementptr inbounds nuw %"class.std::function", ptr %5, i32 0, i32 1
  store ptr null, ptr %7, align 8, !tbaa !28
  %8 = load ptr, ptr %4, align 8, !tbaa !27
  %9 = call noundef zeroext i1 @_ZNSt14_Function_base13_Base_managerIPFvRN6duckdb9DataChunkERNS1_15ExpressionStateERNS1_6VectorEEE21_M_not_empty_functionIS8_EEbPT_(ptr noundef %8) #20
  br i1 %9, label %10, label %15

10:                                               ; preds = %2
  %11 = getelementptr inbounds nuw %"class.std::_Function_base", ptr %5, i32 0, i32 0
  %12 = load ptr, ptr %4, align 8, !tbaa !27
  call void @_ZNSt14_Function_base13_Base_managerIPFvRN6duckdb9DataChunkERNS1_15ExpressionStateERNS1_6VectorEEE15_M_init_functorIRS8_EEvRSt9_Any_dataOT_(ptr noundef nonnull align 8 dereferenceable(16) %11, ptr noundef nonnull %12) #20
  %13 = getelementptr inbounds nuw %"class.std::function", ptr %5, i32 0, i32 1
  store ptr @_ZNSt17_Function_handlerIFvRN6duckdb9DataChunkERNS0_15ExpressionStateERNS0_6VectorEEPS7_E9_M_invokeERKSt9_Any_dataS2_S4_S6_, ptr %13, align 8, !tbaa !28
  %14 = getelementptr inbounds nuw %"class.std::_Function_base", ptr %5, i32 0, i32 1
  store ptr @_ZNSt17_Function_handlerIFvRN6duckdb9DataChunkERNS0_15ExpressionStateERNS0_6VectorEEPS7_E10_M_managerERSt9_Any_dataRKSA_St18_Manager_operation, ptr %14, align 8, !tbaa !31
  br label %15

15:                                               ; preds = %10, %2
  ret void
}

; Function Attrs: mustprogress nounwind uwtable
define linkonce_odr void @_ZN6duckdb6vectorINS_11LogicalTypeELb1EEC2Ev(ptr noundef nonnull align 8 dereferenceable(24) %0) unnamed_addr #4 comdat align 2 {
  %2 = alloca ptr, align 8
  store ptr %0, ptr %2, align 8, !tbaa !17
  %3 = load ptr, ptr %2, align 8
  call void @_ZNSt6vectorIN6duckdb11LogicalTypeESaIS1_EEC2Ev(ptr noundef nonnull align 8 dereferenceable(24) %3) #20
  ret void
}

; Function Attrs: mustprogress uwtable
define void @_ZN6duckdb5PiFun11GetFunctionEv(ptr dead_on_unwind noalias writable sret(%"class.duckdb::ScalarFunction") align 8 %0) #0 align 2 personality ptr @__gxx_personality_v0 {
  %2 = alloca ptr, align 8
  %3 = alloca %"class.duckdb::vector.3", align 8
  %4 = alloca %"struct.duckdb::LogicalType", align 8
  %5 = alloca ptr, align 8
  %6 = alloca i32, align 4
  %7 = alloca %"class.std::function", align 8
  %8 = alloca %"struct.duckdb::LogicalType", align 8
  store ptr %0, ptr %2, align 8
  call void @llvm.memset.p0.i64(ptr align 8 %3, i8 0, i64 24, i1 false)
  call void @_ZN6duckdb6vectorINS_11LogicalTypeELb1EEC2Ev(ptr noundef nonnull align 8 dereferenceable(24) %3) #20
  invoke void @_ZN6duckdb11LogicalTypeC1ENS_13LogicalTypeIdE(ptr noundef nonnull align 8 dereferenceable(24) %4, i8 noundef zeroext 23)
          to label %9 unwind label %12

9:                                                ; preds = %1
  call void @_ZNSt8functionIFvRN6duckdb9DataChunkERNS0_15ExpressionStateERNS0_6VectorEEEC2IRS7_vEEOT_(ptr noundef nonnull align 8 dereferenceable(32) %7, ptr noundef nonnull @_ZN6duckdbL10PiFunctionERNS_9DataChunkERNS_15ExpressionStateERNS_6VectorE) #20
  invoke void @_ZN6duckdb11LogicalTypeC1ENS_13LogicalTypeIdE(ptr noundef nonnull align 8 dereferenceable(24) %8, i8 noundef zeroext 0)
          to label %10 unwind label %16

10:                                               ; preds = %9
  invoke void @_ZN6duckdb14ScalarFunctionC1ENS_6vectorINS_11LogicalTypeELb1EEES2_St8functionIFvRNS_9DataChunkERNS_15ExpressionStateERNS_6VectorEEEPFNS_10unique_ptrINS_12FunctionDataESt14default_deleteISE_ELb1EEERNS_13ClientContextERS0_RNS1_INSD_INS_10ExpressionESF_ISL_ELb1EEELb1EEEEPFSH_RNS_23ScalarFunctionBindInputESK_SP_EPFNSD_INS_14BaseStatisticsESF_ISW_ELb1EEESJ_RNS_23FunctionStatisticsInputEEPFNSD_INS_18FunctionLocalStateESF_IS13_ELb1EEES8_RKNS_23BoundFunctionExpressionEPSE_ES2_NS_17FunctionStabilityENS_20FunctionNullHandlingEPFS2_mRKS2_E(ptr noundef nonnull align 8 dereferenceable(296) %0, ptr noundef %3, ptr noundef %4, ptr noundef %7, ptr noundef null, ptr noundef null, ptr noundef null, ptr noundef null, ptr noundef %8, i8 noundef zeroext 0, i8 noundef zeroext 0, ptr noundef null)
          to label %11 unwind label %20

11:                                               ; preds = %10
  call void @_ZN6duckdb11LogicalTypeD1Ev(ptr noundef nonnull align 8 dereferenceable(24) %8) #20
  call void @_ZNSt14_Function_baseD2Ev(ptr noundef nonnull align 8 dereferenceable(32) %7) #20
  call void @_ZN6duckdb11LogicalTypeD1Ev(ptr noundef nonnull align 8 dereferenceable(24) %4) #20
  call void @_ZNSt6vectorIN6duckdb11LogicalTypeESaIS1_EED2Ev(ptr noundef nonnull align 8 dereferenceable(24) %3) #20
  ret void

12:                                               ; preds = %1
  %13 = landingpad { ptr, i32 }
          cleanup
  %14 = extractvalue { ptr, i32 } %13, 0
  store ptr %14, ptr %5, align 8
  %15 = extractvalue { ptr, i32 } %13, 1
  store i32 %15, ptr %6, align 4
  br label %25

16:                                               ; preds = %9
  %17 = landingpad { ptr, i32 }
          cleanup
  %18 = extractvalue { ptr, i32 } %17, 0
  store ptr %18, ptr %5, align 8
  %19 = extractvalue { ptr, i32 } %17, 1
  store i32 %19, ptr %6, align 4
  br label %24

20:                                               ; preds = %10
  %21 = landingpad { ptr, i32 }
          cleanup
  %22 = extractvalue { ptr, i32 } %21, 0
  store ptr %22, ptr %5, align 8
  %23 = extractvalue { ptr, i32 } %21, 1
  store i32 %23, ptr %6, align 4
  call void @_ZN6duckdb11LogicalTypeD1Ev(ptr noundef nonnull align 8 dereferenceable(24) %8) #20
  br label %24

24:                                               ; preds = %20, %16
  call void @_ZNSt14_Function_baseD2Ev(ptr noundef nonnull align 8 dereferenceable(32) %7) #20
  call void @_ZN6duckdb11LogicalTypeD1Ev(ptr noundef nonnull align 8 dereferenceable(24) %4) #20
  br label %25

25:                                               ; preds = %24, %12
  call void @_ZNSt6vectorIN6duckdb11LogicalTypeESaIS1_EED2Ev(ptr noundef nonnull align 8 dereferenceable(24) %3) #20
  br label %26

26:                                               ; preds = %25
  %27 = load ptr, ptr %5, align 8
  %28 = load i32, ptr %6, align 4
  %29 = insertvalue { ptr, i32 } poison, ptr %27, 0
  %30 = insertvalue { ptr, i32 } %29, i32 %28, 1
  resume { ptr, i32 } %30
}