; Function Attrs: mustprogress uwtable
define void @_ZN6duckdb5PiFun11GetFunctionEv(ptr dead_on_unwind noalias writable sret(%"class.duckdb::ScalarFunction") align 8 %0) local_unnamed_addr #0 align 2 personality ptr @__gxx_personality_v0 {
  %2 = alloca %"class.duckdb::vector.3", align 8
  %3 = alloca %"struct.duckdb::LogicalType", align 8
  %4 = alloca %"class.std::function", align 8
  %5 = alloca %"struct.duckdb::LogicalType", align 8
  call void @llvm.memset.p0.i64(ptr noundef nonnull align 8 dereferenceable(24) %2, i8 0, i64 24, i1 false)
  invoke void @_ZN6duckdb11LogicalTypeC1ENS_13LogicalTypeIdE(ptr noundef nonnull align 8 dereferenceable(24) %3, i8 noundef zeroext 23)
          to label %6 unwind label %24

6:                                                ; preds = %1
  %7 = getelementptr inbounds nuw i8, ptr %4, i64 16
  %8 = getelementptr inbounds nuw i8, ptr %4, i64 24
  %9 = getelementptr inbounds nuw i8, ptr %4, i64 8
  store i64 0, ptr %9, align 8
  store ptr @_ZN6duckdbL10PiFunctionERNS_9DataChunkERNS_15ExpressionStateERNS_6VectorE, ptr %4, align 8, !tbaa !14
  store ptr @_ZNSt17_Function_handlerIFvRN6duckdb9DataChunkERNS0_15ExpressionStateERNS0_6VectorEEPS7_E9_M_invokeERKSt9_Any_dataS2_S4_S6_, ptr %8, align 8, !tbaa !15
  store ptr @_ZNSt17_Function_handlerIFvRN6duckdb9DataChunkERNS0_15ExpressionStateERNS0_6VectorEEPS7_E10_M_managerERSt9_Any_dataRKSA_St18_Manager_operation, ptr %7, align 8, !tbaa !18
  invoke void @_ZN6duckdb11LogicalTypeC1ENS_13LogicalTypeIdE(ptr noundef nonnull align 8 dereferenceable(24) %5, i8 noundef zeroext 0)
          to label %10 unwind label %.thread

10:                                               ; preds = %6
  invoke void @_ZN6duckdb14ScalarFunctionC1ENS_6vectorINS_11LogicalTypeELb1EEES2_St8functionIFvRNS_9DataChunkERNS_15ExpressionStateERNS_6VectorEEEPFNS_10unique_ptrINS_12FunctionDataESt14default_deleteISE_ELb1EEERNS_13ClientContextERS0_RNS1_INSD_INS_10ExpressionESF_ISL_ELb1EEELb1EEEEPFSH_RNS_23ScalarFunctionBindInputESK_SP_EPFNSD_INS_14BaseStatisticsESF_ISW_ELb1EEESJ_RNS_23FunctionStatisticsInputEEPFNSD_INS_18FunctionLocalStateESF_IS13_ELb1EEES8_RKNS_23BoundFunctionExpressionEPSE_ES2_NS_17FunctionStabilityENS_20FunctionNullHandlingEPFS2_mRKS2_E(ptr noundef nonnull align 8 dereferenceable(296) %0, ptr noundef nonnull %2, ptr noundef nonnull %3, ptr noundef nonnull %4, ptr noundef null, ptr noundef null, ptr noundef null, ptr noundef null, ptr noundef nonnull %5, i8 noundef zeroext 0, i8 noundef zeroext 0, ptr noundef null)
          to label %11 unwind label %27

11:                                               ; preds = %10
  call void @_ZN6duckdb11LogicalTypeD1Ev(ptr noundef nonnull align 8 dereferenceable(24) %5) #23
  %12 = load ptr, ptr %7, align 8, !tbaa !18
  %.not.i = icmp eq ptr %12, null
  br i1 %.not.i, label %_ZNSt14_Function_baseD2Ev.exit, label %13

13:                                               ; preds = %11
  %14 = invoke noundef zeroext i1 %12(ptr noundef nonnull align 8 dereferenceable(32) %4, ptr noundef nonnull align 8 dereferenceable(32) %4, i32 noundef 3)
          to label %_ZNSt14_Function_baseD2Ev.exit unwind label %15

15:                                               ; preds = %13
  %16 = landingpad { ptr, i32 }
          catch ptr null
  %17 = extractvalue { ptr, i32 } %16, 0
  call void @__clang_call_terminate(ptr %17) #26
  unreachable

_ZNSt14_Function_baseD2Ev.exit:                   ; preds = %11, %13
  call void @_ZN6duckdb11LogicalTypeD1Ev(ptr noundef nonnull align 8 dereferenceable(24) %3) #23
  %18 = load ptr, ptr %2, align 8, !tbaa !3
  %19 = getelementptr inbounds nuw i8, ptr %2, i64 8
  %20 = load ptr, ptr %19, align 8, !tbaa !13
  %.not4.i.i.i.i = icmp eq ptr %18, %20
  br i1 %.not4.i.i.i.i, label %_ZSt8_DestroyIPN6duckdb11LogicalTypeES1_EvT_S3_RSaIT0_E.exit.i, label %.lr.ph.i.i.i.i

.lr.ph.i.i.i.i:                                   ; preds = %_ZNSt14_Function_baseD2Ev.exit, %.lr.ph.i.i.i.i
  %.05.i.i.i.i = phi ptr [ %21, %.lr.ph.i.i.i.i ], [ %18, %_ZNSt14_Function_baseD2Ev.exit ]
  call void @_ZN6duckdb11LogicalTypeD1Ev(ptr noundef nonnull align 8 dereferenceable(24) %.05.i.i.i.i) #23
  %21 = getelementptr inbounds nuw i8, ptr %.05.i.i.i.i, i64 24
  %.not.i.i.i.i = icmp eq ptr %21, %20
  br i1 %.not.i.i.i.i, label %_ZSt8_DestroyIPN6duckdb11LogicalTypeES1_EvT_S3_RSaIT0_E.exitthread-pre-split.i, label %.lr.ph.i.i.i.i, !llvm.loop !12

_ZSt8_DestroyIPN6duckdb11LogicalTypeES1_EvT_S3_RSaIT0_E.exitthread-pre-split.i: ; preds = %.lr.ph.i.i.i.i
  %.pr.i = load ptr, ptr %2, align 8, !tbaa !3
  br label %_ZSt8_DestroyIPN6duckdb11LogicalTypeES1_EvT_S3_RSaIT0_E.exit.i

_ZSt8_DestroyIPN6duckdb11LogicalTypeES1_EvT_S3_RSaIT0_E.exit.i: ; preds = %_ZSt8_DestroyIPN6duckdb11LogicalTypeES1_EvT_S3_RSaIT0_E.exitthread-pre-split.i, %_ZNSt14_Function_baseD2Ev.exit
  %22 = phi ptr [ %.pr.i, %_ZSt8_DestroyIPN6duckdb11LogicalTypeES1_EvT_S3_RSaIT0_E.exitthread-pre-split.i ], [ %18, %_ZNSt14_Function_baseD2Ev.exit ]
  %.not.i.i.i = icmp eq ptr %22, null
  br i1 %.not.i.i.i, label %_ZNSt6vectorIN6duckdb11LogicalTypeESaIS1_EED2Ev.exit, label %23

23:                                               ; preds = %_ZSt8_DestroyIPN6duckdb11LogicalTypeES1_EvT_S3_RSaIT0_E.exit.i
  call void @_ZdlPv(ptr noundef nonnull %22) #27
  br label %_ZNSt6vectorIN6duckdb11LogicalTypeESaIS1_EED2Ev.exit

_ZNSt6vectorIN6duckdb11LogicalTypeESaIS1_EED2Ev.exit: ; preds = %_ZSt8_DestroyIPN6duckdb11LogicalTypeES1_EvT_S3_RSaIT0_E.exit.i, %23
  ret void

24:                                               ; preds = %1
  %25 = landingpad { ptr, i32 }
          cleanup
  br label %35

.thread:                                          ; preds = %6
  %26 = landingpad { ptr, i32 }
          cleanup
  br label %29

27:                                               ; preds = %10
  %28 = landingpad { ptr, i32 }
          cleanup
  call void @_ZN6duckdb11LogicalTypeD1Ev(ptr noundef nonnull align 8 dereferenceable(24) %5) #23
  %.pre = load ptr, ptr %7, align 8, !tbaa !18
  %.not.i5 = icmp eq ptr %.pre, null
  br i1 %.not.i5, label %_ZNSt14_Function_baseD2Ev.exit6, label %29

29:                                               ; preds = %.thread, %27
  %.pn9 = phi { ptr, i32 } [ %26, %.thread ], [ %28, %27 ]
  %30 = phi ptr [ @_ZNSt17_Function_handlerIFvRN6duckdb9DataChunkERNS0_15ExpressionStateERNS0_6VectorEEPS7_E10_M_managerERSt9_Any_dataRKSA_St18_Manager_operation, %.thread ], [ %.pre, %27 ]
  %31 = invoke noundef zeroext i1 %30(ptr noundef nonnull align 8 dereferenceable(32) %4, ptr noundef nonnull align 8 dereferenceable(32) %4, i32 noundef 3)
          to label %_ZNSt14_Function_baseD2Ev.exit6 unwind label %32

32:                                               ; preds = %29
  %33 = landingpad { ptr, i32 }
          catch ptr null
  %34 = extractvalue { ptr, i32 } %33, 0
  call void @__clang_call_terminate(ptr %34) #26
  unreachable

_ZNSt14_Function_baseD2Ev.exit6:                  ; preds = %27, %29
  %.pn10 = phi { ptr, i32 } [ %28, %27 ], [ %.pn9, %29 ]
  call void @_ZN6duckdb11LogicalTypeD1Ev(ptr noundef nonnull align 8 dereferenceable(24) %3) #23
  br label %35

35:                                               ; preds = %_ZNSt14_Function_baseD2Ev.exit6, %24
  %.pn.pn = phi { ptr, i32 } [ %.pn10, %_ZNSt14_Function_baseD2Ev.exit6 ], [ %25, %24 ]
  call void @_ZNSt6vectorIN6duckdb11LogicalTypeESaIS1_EED2Ev(ptr noundef nonnull align 8 dereferenceable(24) %2) #23
  resume { ptr, i32 } %.pn.pn
}